; Function Attrs: mustprogress uwtable
define dso_local noundef ptr @_Z16lua_pushvfstringP9lua_StatePKcP13__va_list_tag(ptr noundef %0, ptr noundef %1, ptr noundef %2) local_unnamed_addr #3 {
  %4 = getelementptr inbounds nuw i8, ptr %0, i64 24
  %5 = load ptr, ptr %4, align 8, !tbaa !30
  %6 = getelementptr inbounds nuw i8, ptr %5, i64 72
  %7 = load i64, ptr %6, align 8, !tbaa !31
  %8 = getelementptr inbounds nuw i8, ptr %5, i64 64
  %9 = load i64, ptr %8, align 8, !tbaa !46
  %.not = icmp ult i64 %7, %9
  br i1 %.not, label %12, label %10

10:                                               ; preds = %3
  %11 = tail call noundef i64 @_Z9luaC_stepP9lua_Stateb(ptr noundef nonnull %0, i1 noundef zeroext true)
  br label %12

12:                                               ; preds = %3, %10
  %13 = getelementptr inbounds nuw i8, ptr %0, i64 1
  %14 = load i8, ptr %13, align 1, !tbaa !21
  %15 = and i8 %14, 4
  %.not11 = icmp eq i8 %15, 0
  br i1 %.not11, label %18, label %16

16:                                               ; preds = %12
  %17 = getelementptr inbounds nuw i8, ptr %0, i64 104
  tail call void @_Z16luaC_barrierbackP9lua_StateP8GCObjectPS2_(ptr noundef nonnull %0, ptr noundef nonnull %0, ptr noundef nonnull %17)
  br label %18

18:                                               ; preds = %16, %12
  %19 = tail call noundef ptr @_Z17luaO_pushvfstringP9lua_StatePKcP13__va_list_tag(ptr noundef nonnull %0, ptr noundef %1, ptr noundef %2)
  ret ptr %19
}